; Function Attrs: mustprogress uwtable
define hidden noundef ptr @_ZN11tbv_manager8allocateEmjj(ptr noundef nonnull align 8 dereferenceable(552) %0, i64 noundef %1, i32 noundef %2, i32 noundef %3) local_unnamed_addr #5 align 2 {
  %5 = tail call noundef ptr @_ZN24fixed_bit_vector_manager8allocateEv(ptr noundef nonnull align 8 dereferenceable(552) %0)
  %6 = tail call noundef nonnull align 4 dereferenceable(4) ptr @_ZNK24fixed_bit_vector_manager5fill0ER16fixed_bit_vector(ptr noundef nonnull align 8 dereferenceable(552) %0, ptr noundef nonnull align 4 dereferenceable(4) %5)
  %7 = tail call noundef nonnull align 4 dereferenceable(4) ptr @_ZNK24fixed_bit_vector_manager5fill1ER16fixed_bit_vector(ptr noundef nonnull align 8 dereferenceable(552) %0, ptr noundef nonnull align 4 dereferenceable(4) %5)
  %8 = add i32 %2, 1
  %.not10.i = icmp eq i32 %8, %3
  br i1 %.not10.i, label %_ZN11tbv_manager3setER3tbvmjj.exit, label %.lr.ph.preheader.i

.lr.ph.preheader.i:                               ; preds = %4
  %9 = sub i32 %8, %3
  %umax.i = tail call i32 @llvm.umax.i32(i32 %9, i32 1)
  %wide.trip.count.i = zext i32 %umax.i to i64
  br label %.lr.ph.i

.lr.ph.i:                                         ; preds = %.lr.ph.i, %.lr.ph.preheader.i
  %indvars.iv.i = phi i64 [ 0, %.lr.ph.preheader.i ], [ %indvars.iv.next.i, %.lr.ph.i ]
  %10 = trunc nuw i64 %indvars.iv.i to i32
  %11 = add i32 %3, %10
  %12 = shl nuw i64 1, %indvars.iv.i
  %13 = and i64 %12, %1
  %.not.i = icmp eq i64 %13, 0
  %14 = select i1 %.not.i, i32 1, i32 2
  %15 = shl i32 %11, 1
  %16 = shl nuw i32 %14, 30
  %sext.i.i = ashr i32 %16, 31
  %17 = lshr i32 %15, 5
  %18 = zext nneg i32 %17 to i64
  %19 = getelementptr inbounds nuw [1 x i32], ptr %5, i64 0, i64 %18
  %20 = load i32, ptr %19, align 4, !tbaa !17
  %21 = xor i32 %sext.i.i, %20
  %22 = and i32 %15, 30
  %23 = shl nuw nsw i32 1, %22
  %24 = and i32 %21, %23
  %25 = and i32 %14, 1
  %sext7.i.i = sub nsw i32 0, %25
  %26 = xor i32 %20, %sext7.i.i
  %27 = shl nuw i32 2, %22
  %28 = and i32 %26, %27
  %29 = or disjoint i32 %24, %28
  %30 = xor i32 %29, %20
  store i32 %30, ptr %19, align 4, !tbaa !17
  %indvars.iv.next.i = add nuw nsw i64 %indvars.iv.i, 1
  %exitcond.not.i = icmp eq i64 %indvars.iv.next.i, %wide.trip.count.i
  br i1 %exitcond.not.i, label %_ZN11tbv_manager3setER3tbvmjj.exit, label %.lr.ph.i, !llvm.loop !20

_ZN11tbv_manager3setER3tbvmjj.exit:               ; preds = %.lr.ph.i, %4
  ret ptr %5
}